; ModuleID = 'source-C-CXX/13/1041.c'
source_filename = "source-C-CXX/13/1041.c"
target datalayout = "e-m:e-p270:32:32-p271:32:32-p272:64:64-i64:64-f80:128-n8:16:32:64-S128"
target triple = "x86_64-pc-linux-gnu"

%struct.student = type { i32, i32, i32, i32 }

@.str = private unnamed_addr constant [3 x i8] c"%d\00", align 1
@.str.1 = private unnamed_addr constant [9 x i8] c"%d %d %d\00", align 1
@stu = dso_local global [100000 x %struct.student] zeroinitializer, align 16
@.str.2 = private unnamed_addr constant [18 x i8] c"%d %d\0A%d %d\0A%d %d\00", align 1

; Function Attrs: nofree nounwind sspstrong uwtable
define dso_local i32 @main(i32 %0, i8** nocapture readnone %1) local_unnamed_addr #0 {
  %3 = alloca i32, align 4
  %4 = bitcast i32* %3 to i8*
  call void @llvm.lifetime.start.p0i8(i64 4, i8* nonnull %4) #3
  %5 = call i32 (i8*, ...) @__isoc99_scanf(i8* getelementptr inbounds ([3 x i8], [3 x i8]* @.str, i64 0, i64 0), i32* nonnull %3)
  %6 = load i32, i32* %3, align 4, !tbaa !5
  %7 = icmp sgt i32 %6, 0
  br i1 %7, label %8, label %46

8:                                                ; preds = %2, %35
  %9 = phi i64 [ %42, %35 ], [ 0, %2 ]
  %10 = phi i32 [ %41, %35 ], [ 0, %2 ]
  %11 = phi i32 [ %40, %35 ], [ 0, %2 ]
  %12 = phi i32 [ %39, %35 ], [ 0, %2 ]
  %13 = phi i32 [ %38, %35 ], [ 0, %2 ]
  %14 = phi i32 [ %37, %35 ], [ 0, %2 ]
  %15 = phi i32 [ %36, %35 ], [ 0, %2 ]
  %16 = getelementptr inbounds [100000 x %struct.student], [100000 x %struct.student]* @stu, i64 0, i64 %9, i32 0
  %17 = getelementptr inbounds [100000 x %struct.student], [100000 x %struct.student]* @stu, i64 0, i64 %9, i32 2
  %18 = getelementptr inbounds [100000 x %struct.student], [100000 x %struct.student]* @stu, i64 0, i64 %9, i32 1
  %19 = call i32 (i8*, ...) @__isoc99_scanf(i8* getelementptr inbounds ([9 x i8], [9 x i8]* @.str.1, i64 0, i64 0), i32* nonnull %16, i32* nonnull %17, i32* nonnull %18)
  %20 = load i32, i32* %18, align 4, !tbaa !9
  %21 = load i32, i32* %17, align 8, !tbaa !11
  %22 = add nsw i32 %21, %20
  %23 = getelementptr inbounds [100000 x %struct.student], [100000 x %struct.student]* @stu, i64 0, i64 %9, i32 3
  store i32 %22, i32* %23, align 4, !tbaa !12
  %24 = icmp sgt i32 %22, %15
  br i1 %24, label %25, label %27

25:                                               ; preds = %8
  %26 = load i32, i32* %16, align 16, !tbaa !13
  br label %35

27:                                               ; preds = %8
  %28 = icmp sgt i32 %22, %14
  br i1 %28, label %29, label %31

29:                                               ; preds = %27
  %30 = load i32, i32* %16, align 16, !tbaa !13
  br label %35

31:                                               ; preds = %27
  %32 = icmp sgt i32 %22, %13
  br i1 %32, label %33, label %35

33:                                               ; preds = %31
  %34 = load i32, i32* %16, align 16, !tbaa !13
  br label %35

35:                                               ; preds = %25, %31, %33, %29
  %36 = phi i32 [ %22, %25 ], [ %15, %29 ], [ %15, %33 ], [ %15, %31 ]
  %37 = phi i32 [ %15, %25 ], [ %22, %29 ], [ %14, %33 ], [ %14, %31 ]
  %38 = phi i32 [ %14, %25 ], [ %14, %29 ], [ %22, %33 ], [ %13, %31 ]
  %39 = phi i32 [ %26, %25 ], [ %12, %29 ], [ %12, %33 ], [ %12, %31 ]
  %40 = phi i32 [ %12, %25 ], [ %30, %29 ], [ %11, %33 ], [ %11, %31 ]
  %41 = phi i32 [ %11, %25 ], [ %11, %29 ], [ %34, %33 ], [ %10, %31 ]
  %42 = add nuw nsw i64 %9, 1
  %43 = load i32, i32* %3, align 4, !tbaa !5
  %44 = sext i32 %43 to i64
  %45 = icmp slt i64 %42, %44
  br i1 %45, label %8, label %46, !llvm.loop !14

46:                                               ; preds = %35, %2
  %47 = phi i32 [ 0, %2 ], [ %36, %35 ]
  %48 = phi i32 [ 0, %2 ], [ %37, %35 ]
  %49 = phi i32 [ 0, %2 ], [ %38, %35 ]
  %50 = phi i32 [ 0, %2 ], [ %39, %35 ]
  %51 = phi i32 [ 0, %2 ], [ %40, %35 ]
  %52 = phi i32 [ 0, %2 ], [ %41, %35 ]
  %53 = call i32 (i8*, ...) @printf(i8* nonnull dereferenceable(1) getelementptr inbounds ([18 x i8], [18 x i8]* @.str.2, i64 0, i64 0), i32 %50, i32 %47, i32 %51, i32 %48, i32 %52, i32 %49)
  call void @llvm.lifetime.end.p0i8(i64 4, i8* nonnull %4) #3
  ret i32 0
}

; Function Attrs: argmemonly mustprogress nofree nosync nounwind willreturn
declare void @llvm.lifetime.start.p0i8(i64 immarg, i8* nocapture) #1

; Function Attrs: nofree nounwind
declare noundef i32 @__isoc99_scanf(i8* nocapture noundef readonly, ...) local_unnamed_addr #2

; Function Attrs: nofree nounwind
declare noundef i32 @printf(i8* nocapture noundef readonly, ...) local_unnamed_addr #2

; Function Attrs: argmemonly mustprogress nofree nosync nounwind willreturn
declare void @llvm.lifetime.end.p0i8(i64 immarg, i8* nocapture) #1


!llvm.module.flags = !{!0, !1, !2, !3}
!llvm.ident = !{!4}

!0 = !{i32 1, !"wchar_size", i32 4}
!1 = !{i32 7, !"PIC Level", i32 2}
!2 = !{i32 7, !"PIE Level", i32 2}
!3 = !{i32 7, !"uwtable", i32 1}
!4 = !{!"clang version 13.0.0"}
!5 = !{!6, !6, i64 0}
!6 = !{!"int", !7, i64 0}
!7 = !{!"omnipotent char", !8, i64 0}
!8 = !{!"Simple C/C++ TBAA"}
!9 = !{!10, !6, i64 4}
!10 = !{!"student", !6, i64 0, !6, i64 4, !6, i64 8, !6, i64 12}
!11 = !{!10, !6, i64 8}
!12 = !{!10, !6, i64 12}
!13 = !{!10, !6, i64 0}
!14 = distinct !{!14, !15}
!15 = !{!"llvm.loop.mustprogress"}
